target datalayout = "e-m:e-p270:32:32-p271:32:32-p272:64:64-i64:64-i128:128-f80:128-n8:16:32:64-S128"
target triple = "x86_64-pc-linux-gnu"

%struct.chacha_ctx = type { [16 x i32] }

; Function Attrs: inlinehint nounwind ssp uwtable
define internal i32 @load32_le(ptr noundef %0) #5 {
  %2 = alloca ptr, align 8
  %3 = alloca i32, align 4
  store ptr %0, ptr %2, align 8
  call void @llvm.lifetime.start.p0(i64 4, ptr %3) #11
  %4 = load ptr, ptr %2, align 8
  %5 = call ptr @memcpy.inline(ptr noundef %3, ptr noundef %4, i64 noundef 4) #11
  %6 = load i32, ptr %3, align 4
  call void @llvm.lifetime.end.p0(i64 4, ptr %3) #11
  ret i32 %6
}

; Function Attrs: alwaysinline nounwind
define internal ptr @memcpy.inline(ptr noalias nonnull %0, ptr noalias nonnull %1, i64 %2) #2 {
  %4 = alloca ptr, align 8
  %5 = alloca ptr, align 8
  %6 = alloca i64, align 8
  store ptr %0, ptr %4, align 8
  store ptr %1, ptr %5, align 8
  store i64 %2, ptr %6, align 8
  %7 = load ptr, ptr %4, align 8
  %8 = load ptr, ptr %5, align 8
  %9 = load i64, ptr %6, align 8
  %10 = load ptr, ptr %4, align 8
  %11 = call i64 @llvm.objectsize.i64.p0(ptr %10, i1 false, i1 true, i1 true)
  %12 = call ptr @__memcpy_chk(ptr noundef %7, ptr noundef %8, i64 noundef %9, i64 noundef %11) #11
  ret ptr %12
}

; Function Attrs: nounwind ssp uwtable
define internal void @chacha_ivsetup(ptr noundef %0, ptr noundef %1, ptr noundef %2) #0 {
  %4 = alloca ptr, align 8
  %5 = alloca ptr, align 8
  %6 = alloca ptr, align 8
  store ptr %0, ptr %4, align 8
  store ptr %1, ptr %5, align 8
  store ptr %2, ptr %6, align 8
  %7 = load ptr, ptr %6, align 8
  %8 = icmp eq ptr %7, null
  br i1 %8, label %9, label %10

9:                                                ; preds = %3
  br label %14

10:                                               ; preds = %3
  %11 = load ptr, ptr %6, align 8
  %12 = getelementptr i8, ptr %11, i64 0
  %13 = call i32 @load32_le(ptr noundef %12)
  br label %14

14:                                               ; preds = %10, %9
  %15 = phi i32 [ 0, %9 ], [ %13, %10 ]
  %16 = load ptr, ptr %4, align 8
  %17 = getelementptr inbounds nuw %struct.chacha_ctx, ptr %16, i32 0, i32 0
  %18 = getelementptr [16 x i32], ptr %17, i64 0, i64 12
  store i32 %15, ptr %18, align 4
  %19 = load ptr, ptr %6, align 8
  %20 = icmp eq ptr %19, null
  br i1 %20, label %21, label %22

21:                                               ; preds = %14
  br label %26

22:                                               ; preds = %14
  %23 = load ptr, ptr %6, align 8
  %24 = getelementptr i8, ptr %23, i64 4
  %25 = call i32 @load32_le(ptr noundef %24)
  br label %26

26:                                               ; preds = %22, %21
  %27 = phi i32 [ 0, %21 ], [ %25, %22 ]
  %28 = load ptr, ptr %4, align 8
  %29 = getelementptr inbounds nuw %struct.chacha_ctx, ptr %28, i32 0, i32 0
  %30 = getelementptr [16 x i32], ptr %29, i64 0, i64 13
  store i32 %27, ptr %30, align 4
  %31 = load ptr, ptr %5, align 8
  %32 = getelementptr i8, ptr %31, i64 0
  %33 = call i32 @load32_le(ptr noundef %32)
  %34 = load ptr, ptr %4, align 8
  %35 = getelementptr inbounds nuw %struct.chacha_ctx, ptr %34, i32 0, i32 0
  %36 = getelementptr [16 x i32], ptr %35, i64 0, i64 14
  store i32 %33, ptr %36, align 4
  %37 = load ptr, ptr %5, align 8
  %38 = getelementptr i8, ptr %37, i64 4
  %39 = call i32 @load32_le(ptr noundef %38)
  %40 = load ptr, ptr %4, align 8
  %41 = getelementptr inbounds nuw %struct.chacha_ctx, ptr %40, i32 0, i32 0
  %42 = getelementptr [16 x i32], ptr %41, i64 0, i64 15
  store i32 %39, ptr %42, align 4
  ret void
}

; Function Attrs: nounwind ssp uwtable
define internal void @chacha_keysetup(ptr noundef %0, ptr noundef %1) #0 {
  %3 = alloca ptr, align 8
  %4 = alloca ptr, align 8
  store ptr %0, ptr %3, align 8
  store ptr %1, ptr %4, align 8
  %5 = load ptr, ptr %3, align 8
  %6 = getelementptr inbounds nuw %struct.chacha_ctx, ptr %5, i32 0, i32 0
  %7 = getelementptr [16 x i32], ptr %6, i64 0, i64 0
  store i32 1634760805, ptr %7, align 4
  %8 = load ptr, ptr %3, align 8
  %9 = getelementptr inbounds nuw %struct.chacha_ctx, ptr %8, i32 0, i32 0
  %10 = getelementptr [16 x i32], ptr %9, i64 0, i64 1
  store i32 857760878, ptr %10, align 4
  %11 = load ptr, ptr %3, align 8
  %12 = getelementptr inbounds nuw %struct.chacha_ctx, ptr %11, i32 0, i32 0
  %13 = getelementptr [16 x i32], ptr %12, i64 0, i64 2
  store i32 2036477234, ptr %13, align 4
  %14 = load ptr, ptr %3, align 8
  %15 = getelementptr inbounds nuw %struct.chacha_ctx, ptr %14, i32 0, i32 0
  %16 = getelementptr [16 x i32], ptr %15, i64 0, i64 3
  store i32 1797285236, ptr %16, align 4
  %17 = load ptr, ptr %4, align 8
  %18 = getelementptr i8, ptr %17, i64 0
  %19 = call i32 @load32_le(ptr noundef %18)
  %20 = load ptr, ptr %3, align 8
  %21 = getelementptr inbounds nuw %struct.chacha_ctx, ptr %20, i32 0, i32 0
  %22 = getelementptr [16 x i32], ptr %21, i64 0, i64 4
  store i32 %19, ptr %22, align 4
  %23 = load ptr, ptr %4, align 8
  %24 = getelementptr i8, ptr %23, i64 4
  %25 = call i32 @load32_le(ptr noundef %24)
  %26 = load ptr, ptr %3, align 8
  %27 = getelementptr inbounds nuw %struct.chacha_ctx, ptr %26, i32 0, i32 0
  %28 = getelementptr [16 x i32], ptr %27, i64 0, i64 5
  store i32 %25, ptr %28, align 4
  %29 = load ptr, ptr %4, align 8
  %30 = getelementptr i8, ptr %29, i64 8
  %31 = call i32 @load32_le(ptr noundef %30)
  %32 = load ptr, ptr %3, align 8
  %33 = getelementptr inbounds nuw %struct.chacha_ctx, ptr %32, i32 0, i32 0
  %34 = getelementptr [16 x i32], ptr %33, i64 0, i64 6
  store i32 %31, ptr %34, align 4
  %35 = load ptr, ptr %4, align 8
  %36 = getelementptr i8, ptr %35, i64 12
  %37 = call i32 @load32_le(ptr noundef %36)
  %38 = load ptr, ptr %3, align 8
  %39 = getelementptr inbounds nuw %struct.chacha_ctx, ptr %38, i32 0, i32 0
  %40 = getelementptr [16 x i32], ptr %39, i64 0, i64 7
  store i32 %37, ptr %40, align 4
  %41 = load ptr, ptr %4, align 8
  %42 = getelementptr i8, ptr %41, i64 16
  %43 = call i32 @load32_le(ptr noundef %42)
  %44 = load ptr, ptr %3, align 8
  %45 = getelementptr inbounds nuw %struct.chacha_ctx, ptr %44, i32 0, i32 0
  %46 = getelementptr [16 x i32], ptr %45, i64 0, i64 8
  store i32 %43, ptr %46, align 4
  %47 = load ptr, ptr %4, align 8
  %48 = getelementptr i8, ptr %47, i64 20
  %49 = call i32 @load32_le(ptr noundef %48)
  %50 = load ptr, ptr %3, align 8
  %51 = getelementptr inbounds nuw %struct.chacha_ctx, ptr %50, i32 0, i32 0
  %52 = getelementptr [16 x i32], ptr %51, i64 0, i64 9
  store i32 %49, ptr %52, align 4
  %53 = load ptr, ptr %4, align 8
  %54 = getelementptr i8, ptr %53, i64 24
  %55 = call i32 @load32_le(ptr noundef %54)
  %56 = load ptr, ptr %3, align 8
  %57 = getelementptr inbounds nuw %struct.chacha_ctx, ptr %56, i32 0, i32 0
  %58 = getelementptr [16 x i32], ptr %57, i64 0, i64 10
  store i32 %55, ptr %58, align 4
  %59 = load ptr, ptr %4, align 8
  %60 = getelementptr i8, ptr %59, i64 28
  %61 = call i32 @load32_le(ptr noundef %60)
  %62 = load ptr, ptr %3, align 8
  %63 = getelementptr inbounds nuw %struct.chacha_ctx, ptr %62, i32 0, i32 0
  %64 = getelementptr [16 x i32], ptr %63, i64 0, i64 11
  store i32 %61, ptr %64, align 4
  ret void
}

; Function Attrs: inlinehint nounwind ssp uwtable
define internal void @store32_le(ptr noundef %0, i32 noundef %1) #5 {
  %3 = alloca ptr, align 8
  %4 = alloca i32, align 4
  store ptr %0, ptr %3, align 8
  store i32 %1, ptr %4, align 4
  %5 = load ptr, ptr %3, align 8
  %6 = call ptr @memcpy.inline(ptr noundef %5, ptr noundef %4, i64 noundef 4) #11
  ret void
}

; Function Attrs: nounwind ssp uwtable
define internal i32 @stream_ref_xor_ic(ptr noundef %0, ptr noundef %1, i64 noundef %2, ptr noundef %3, i64 noundef %4, ptr noundef %5) #0 {
  %7 = alloca i32, align 4
  %8 = alloca ptr, align 8
  %9 = alloca ptr, align 8
  %10 = alloca i64, align 8
  %11 = alloca ptr, align 8
  %12 = alloca i64, align 8
  %13 = alloca ptr, align 8
  %14 = alloca %struct.chacha_ctx, align 4
  %15 = alloca [8 x i8], align 1
  %16 = alloca i32, align 4
  %17 = alloca i32, align 4
  %18 = alloca i32, align 4
  store ptr %0, ptr %8, align 8
  store ptr %1, ptr %9, align 8
  store i64 %2, ptr %10, align 8
  store ptr %3, ptr %11, align 8
  store i64 %4, ptr %12, align 8
  store ptr %5, ptr %13, align 8
  call void @llvm.lifetime.start.p0(i64 64, ptr %14) #11
  call void @llvm.lifetime.start.p0(i64 8, ptr %15) #11
  call void @llvm.lifetime.start.p0(i64 4, ptr %16) #11
  call void @llvm.lifetime.start.p0(i64 4, ptr %17) #11
  %19 = load i64, ptr %10, align 8
  %20 = icmp ne i64 %19, 0
  br i1 %20, label %22, label %21

21:                                               ; preds = %6
  store i32 0, ptr %7, align 4
  store i32 1, ptr %18, align 4
  br label %38

22:                                               ; preds = %6
  %23 = load i64, ptr %12, align 8
  %24 = lshr i64 %23, 32
  %25 = trunc i64 %24 to i32
  store i32 %25, ptr %16, align 4
  %26 = load i64, ptr %12, align 8
  %27 = trunc i64 %26 to i32
  store i32 %27, ptr %17, align 4
  %28 = getelementptr [8 x i8], ptr %15, i64 0, i64 0
  %29 = load i32, ptr %17, align 4
  call void @store32_le(ptr noundef %28, i32 noundef %29)
  %30 = getelementptr [8 x i8], ptr %15, i64 0, i64 4
  %31 = load i32, ptr %16, align 4
  call void @store32_le(ptr noundef %30, i32 noundef %31)
  %32 = load ptr, ptr %13, align 8
  call void @chacha_keysetup(ptr noundef %14, ptr noundef %32)
  %33 = load ptr, ptr %11, align 8
  %34 = getelementptr inbounds [8 x i8], ptr %15, i64 0, i64 0
  call void @chacha_ivsetup(ptr noundef %14, ptr noundef %33, ptr noundef %34)
  %35 = load ptr, ptr %9, align 8
  %36 = load ptr, ptr %8, align 8
  %37 = load i64, ptr %10, align 8
  call void @chacha20_encrypt_bytes(ptr noundef %14, ptr noundef %35, ptr noundef %36, i64 noundef %37)
  call void @sodium_memzero(ptr noundef %14, i64 noundef 64)
  store i32 0, ptr %7, align 4
  store i32 1, ptr %18, align 4
  br label %38

38:                                               ; preds = %22, %21
  call void @llvm.lifetime.end.p0(i64 4, ptr %17) #11
  call void @llvm.lifetime.end.p0(i64 4, ptr %16) #11
  call void @llvm.lifetime.end.p0(i64 8, ptr %15) #11
  call void @llvm.lifetime.end.p0(i64 64, ptr %14) #11
  %39 = load i32, ptr %7, align 4
  ret i32 %39
}